(lp1
S'ac05d2a1a86d692fc5ca48400103f832e1b92a64971521be135d6872'
p2
aS'e74f40457b9887e21b7398c4200651fdfa0e5db7644e58b6d022c9a8'
p3
aS'3ec8c97f21581887e4c287de69f8f444c97d34e177829f15377d83c9'
p4
aS'f8ed95def4cbbf23fe7933ee5cb8633f819baf05e633db1205a91642'
p5
aS'295c41b1b2d64b260765606199de87788adc439c0543d6f7ecba99a7'
p6
aS'2c93df83d4971d53ef24423e4f705e8dac3c564c0126941167f1b125'
p7
aS'29fde579a43896eac704ced1f021a1010b5ea392cdd4bdfff570bd32'
p8
aS'55a35e2365d9e6161250ecfd28807dac4be29708cbdefe71776cc848'
p9
aS'd7c2f802a8a8cabd4ae69a30dede32a3bdc6c9a36a59ee972079c4d6'
p10
aS'ef7ec6347a164524c22146eac42eab3a4467894fd6ac09024d052d73'
p11
aS'151422a634b66df548d9b52dc1d5d8932fef52b6b9e2d0d7cdc19aaf'
p12
aS'4d661b467bdd027b665d1a22dd711c9774ab576ecf5257dfd21a9ff2'
p13
aS'00db129072745b73517a50b9cf096c547541241b86b8b78abb176b09'
p14
aS'356ce551acba89b11ad83d976078664f6288a79899025454af0f314e'
p15
aS'731f6b0fc2c9687db58463a9feb18b963362a6a03b3721ec2d10a911'
p16
aS'7bf244d6d9cf3e0402b55e3d78d2437b8a83ade34672ddbfb75c6375'
p17
aS'96da5d16280571294b02c6c707f8537001e074cc7b8d78664d976430'
p18
aS'2e8a59554207f4c09234e9619a40e19a3bb9128b2f545a955260c14c'
p19
aS'ec723b4442aa9bba182c71f0b74f03447859ac82bf0b18e90300d8ea'
p20
aS'15e41592e198e9e59f46425bb6aeaf3491232bcb70787e60ec751872'
p21
aS'f7f546ad90f1ad7d9f44972d06acb63a0de56dd3eeed5ccf6306145c'
p22
aS'b6f5069da62b650a3d8447b77ef085d6f5135c70c84c68e3650df173'
p23
aS'9c2f151e721e6e0006b7b957462f8715aebdcc2d9ea04f5030ae19c6'
p24
aS'bd9b67b5cb76e865244174d00cb4ad9579e4da4d6c1d90666a3a6c9f'
p25
aS'771db6aab05d46301ac1cdbf380272afe1999cd4baeb51023cdd4447'
p26
aS'33213a41470753db812c881325920f214a125720b50b75c6b5b465a5'
p27
aS'89b6d831d7ff51dd3c023da532f5921f2d096845096133a035f5d9a4'
p28
aS'35498e8ebd9ea97a6d7ba3f7f3cb976a6837903bff6551472fc81541'
p29
aS'72a381a28f7c4fffaca897a98f2c6109af2f559845366d7016df006b'
p30
aS'2992cc98f0e70a57dd34d78a1196a33cc46f21555c19c0aaaff32abc'
p31
aS'9c76dbc9a3c9ac39e88b74529c737a60936f298b3ffe78b370635141'
p32
aS'438bef01f68b056cc4c86dc6a5c7a916329c393aa48fe5d9643f46f9'
p33
aS'459367794472527699b527bedb7f857887452a52b687e3ccc187dc7f'
p34
aS'10ea907e69341d17821158dca9ae741c330c1dfb6fabbe577dc4d4ca'
p35
aS'06b85c79fcb686aaf5fbdf77f41191c484c4fc540f5cb4ae9b0babe4'
p36
aS'6a3f4e7b6cc76e8baa14646374b9ca6afa6fd55ddd51a94f2797d941'
p37
aS'a3ee2158cebc694f936ff6369e895ceec0518ac83d0df29fcb612c02'
p38
aS'b3e8bd0c944773264b9efcecef633054878b1d7bf470f2804eb2b868'
p39
aS'fc49a1f913f99ea2351e43b315ef24b2d18a355debb4f330ea1d0fb7'
p40
aS'99e3ca165acb107abc536d5c91c322b400945cc046342bd18467b276'
p41
aS'9783568fc753c8a792700747a74f6d46c4abebfbb74e6e0bda0db5d5'
p42
aS'55abd428dae3d0093d3373289747a55592e1bb4f33c7ee4fedd54ed4'
p43
aS'38d9287a5e0798af3d66f9117235a287b0a4a0183588355a604c088c'
p44
aS'c4298a30156a83274227cd0bec01a6563941c976667c5be931848b14'
p45
aS'4881563ce296ed78742c1cf1473e079498d40e1f9d1d141e7ab5ecf7'
p46
aS'1d08a2c83f5a6ab3e317c1eeb852ac8129013bc065a4eeffaf2dbe08'
p47
a.